target datalayout = "e-m:e-p270:32:32-p271:32:32-p272:64:64-i64:64-i128:128-f80:128-n8:16:32:64-S128"
target triple = "x86_64-pc-linux-gnu"

%struct.opj_jp2 = type { ptr, ptr, ptr, i32, i32, i32, i32, i32, i32, i32, i32, i32, i32, i32, i32, i32, i32, ptr, ptr, i64, i64, i32, i32, i32, %struct.opj_jp2_color, i32, i8, i8 }
%struct.opj_jp2_color = type { ptr, i32, ptr, ptr, i8 }
%struct.opj_jp2_comps = type { i32, i32, i32 }

; Function Attrs: nounwind uwtable
define internal i32 @opj_jp2_default_validation(ptr noundef %0, ptr noundef %1, ptr noundef %2) #0 {
  %4 = alloca ptr, align 8
  %5 = alloca ptr, align 8
  %6 = alloca ptr, align 8
  %7 = alloca i32, align 4
  %8 = alloca i32, align 4
  store ptr %0, ptr %4, align 8, !tbaa !3
  store ptr %1, ptr %5, align 8, !tbaa !8
  store ptr %2, ptr %6, align 8, !tbaa !12
  call void @llvm.lifetime.start.p0(i64 4, ptr %7) #5
  store i32 1, ptr %7, align 4, !tbaa !39
  call void @llvm.lifetime.start.p0(i64 4, ptr %8) #5
  %9 = load ptr, ptr %4, align 8, !tbaa !3
  %10 = getelementptr inbounds nuw %struct.opj_jp2, ptr %9, i32 0, i32 22
  %11 = load i32, ptr %10, align 4, !tbaa !153
  %12 = icmp eq i32 %11, 0
  %13 = zext i1 %12 to i32
  %14 = load i32, ptr %7, align 4, !tbaa !39
  %15 = and i32 %14, %13
  store i32 %15, ptr %7, align 4, !tbaa !39
  %16 = load ptr, ptr %4, align 8, !tbaa !3
  %17 = getelementptr inbounds nuw %struct.opj_jp2, ptr %16, i32 0, i32 23
  %18 = load i32, ptr %17, align 8, !tbaa !166
  %19 = icmp eq i32 %18, 0
  %20 = zext i1 %19 to i32
  %21 = load i32, ptr %7, align 4, !tbaa !39
  %22 = and i32 %21, %20
  store i32 %22, ptr %7, align 4, !tbaa !39
  %23 = load ptr, ptr %4, align 8, !tbaa !3
  %24 = getelementptr inbounds nuw %struct.opj_jp2, ptr %23, i32 0, i32 0
  %25 = load ptr, ptr %24, align 8, !tbaa !14
  %26 = icmp ne ptr %25, null
  %27 = zext i1 %26 to i32
  %28 = load i32, ptr %7, align 4, !tbaa !39
  %29 = and i32 %28, %27
  store i32 %29, ptr %7, align 4, !tbaa !39
  %30 = load ptr, ptr %4, align 8, !tbaa !3
  %31 = getelementptr inbounds nuw %struct.opj_jp2, ptr %30, i32 0, i32 2
  %32 = load ptr, ptr %31, align 8, !tbaa !91
  %33 = icmp ne ptr %32, null
  %34 = zext i1 %33 to i32
  %35 = load i32, ptr %7, align 4, !tbaa !39
  %36 = and i32 %35, %34
  store i32 %36, ptr %7, align 4, !tbaa !39
  %37 = load ptr, ptr %4, align 8, !tbaa !3
  %38 = getelementptr inbounds nuw %struct.opj_jp2, ptr %37, i32 0, i32 1
  %39 = load ptr, ptr %38, align 8, !tbaa !97
  %40 = icmp ne ptr %39, null
  %41 = zext i1 %40 to i32
  %42 = load i32, ptr %7, align 4, !tbaa !39
  %43 = and i32 %42, %41
  store i32 %43, ptr %7, align 4, !tbaa !39
  %44 = load ptr, ptr %4, align 8, !tbaa !3
  %45 = getelementptr inbounds nuw %struct.opj_jp2, ptr %44, i32 0, i32 16
  %46 = load i32, ptr %45, align 4, !tbaa !47
  %47 = icmp ugt i32 %46, 0
  %48 = zext i1 %47 to i32
  %49 = load i32, ptr %7, align 4, !tbaa !39
  %50 = and i32 %49, %48
  store i32 %50, ptr %7, align 4, !tbaa !39
  %51 = load ptr, ptr %4, align 8, !tbaa !3
  %52 = getelementptr inbounds nuw %struct.opj_jp2, ptr %51, i32 0, i32 4
  %53 = load i32, ptr %52, align 4, !tbaa !53
  %54 = icmp ugt i32 %53, 0
  %55 = zext i1 %54 to i32
  %56 = load i32, ptr %7, align 4, !tbaa !39
  %57 = and i32 %56, %55
  store i32 %57, ptr %7, align 4, !tbaa !39
  %58 = load ptr, ptr %4, align 8, !tbaa !3
  %59 = getelementptr inbounds nuw %struct.opj_jp2, ptr %58, i32 0, i32 3
  %60 = load i32, ptr %59, align 8, !tbaa !56
  %61 = icmp ugt i32 %60, 0
  %62 = zext i1 %61 to i32
  %63 = load i32, ptr %7, align 4, !tbaa !39
  %64 = and i32 %63, %62
  store i32 %64, ptr %7, align 4, !tbaa !39
  store i32 0, ptr %8, align 4, !tbaa !39
  br label %65

65:                                               ; preds = %85, %3
  %66 = load i32, ptr %8, align 4, !tbaa !39
  %67 = load ptr, ptr %4, align 8, !tbaa !3
  %68 = getelementptr inbounds nuw %struct.opj_jp2, ptr %67, i32 0, i32 5
  %69 = load i32, ptr %68, align 8, !tbaa !49
  %70 = icmp ult i32 %66, %69
  br i1 %70, label %71, label %88

71:                                               ; preds = %65
  %72 = load ptr, ptr %4, align 8, !tbaa !3
  %73 = getelementptr inbounds nuw %struct.opj_jp2, ptr %72, i32 0, i32 18
  %74 = load ptr, ptr %73, align 8, !tbaa !50
  %75 = load i32, ptr %8, align 4, !tbaa !39
  %76 = zext i32 %75 to i64
  %77 = getelementptr inbounds nuw %struct.opj_jp2_comps, ptr %74, i64 %76
  %78 = getelementptr inbounds nuw %struct.opj_jp2_comps, ptr %77, i32 0, i32 2
  %79 = load i32, ptr %78, align 4, !tbaa !67
  %80 = and i32 %79, 127
  %81 = icmp ult i32 %80, 38
  %82 = zext i1 %81 to i32
  %83 = load i32, ptr %7, align 4, !tbaa !39
  %84 = and i32 %83, %82
  store i32 %84, ptr %7, align 4, !tbaa !39
  br label %85

85:                                               ; preds = %71
  %86 = load i32, ptr %8, align 4, !tbaa !39
  %87 = add i32 %86, 1
  store i32 %87, ptr %8, align 4, !tbaa !39
  br label %65, !llvm.loop !185

88:                                               ; preds = %65
  %89 = load ptr, ptr %4, align 8, !tbaa !3
  %90 = getelementptr inbounds nuw %struct.opj_jp2, ptr %89, i32 0, i32 10
  %91 = load i32, ptr %90, align 4, !tbaa !71
  %92 = icmp ugt i32 %91, 0
  br i1 %92, label %93, label %98

93:                                               ; preds = %88
  %94 = load ptr, ptr %4, align 8, !tbaa !3
  %95 = getelementptr inbounds nuw %struct.opj_jp2, ptr %94, i32 0, i32 10
  %96 = load i32, ptr %95, align 4, !tbaa !71
  %97 = icmp ult i32 %96, 3
  br label %98

98:                                               ; preds = %93, %88
  %99 = phi i1 [ false, %88 ], [ %97, %93 ]
  %100 = zext i1 %99 to i32
  %101 = load i32, ptr %7, align 4, !tbaa !39
  %102 = and i32 %101, %100
  store i32 %102, ptr %7, align 4, !tbaa !39
  %103 = load ptr, ptr %5, align 8, !tbaa !8
  %104 = call i32 @opj_stream_has_seek(ptr noundef %103)
  %105 = load i32, ptr %7, align 4, !tbaa !39
  %106 = and i32 %105, %104
  store i32 %106, ptr %7, align 4, !tbaa !39
  %107 = load i32, ptr %7, align 4, !tbaa !39
  call void @llvm.lifetime.end.p0(i64 4, ptr %8) #5
  call void @llvm.lifetime.end.p0(i64 4, ptr %7) #5
  ret i32 %107
}