; Function Attrs: nounwind uwtable
define internal range(i32 0, 2) i32 @opj_jp2_default_validation(ptr noundef readonly captures(none) %0, ptr noundef %1, ptr readnone captures(none) %2) #0 {
  %4 = getelementptr inbounds nuw i8, ptr %0, i64 116
  %5 = load i32, ptr %4, align 4, !tbaa !125
  %6 = getelementptr inbounds nuw i8, ptr %0, i64 120
  %7 = load i32, ptr %6, align 8, !tbaa !133
  %8 = or i32 %7, %5
  %9 = icmp eq i32 %8, 0
  %10 = load ptr, ptr %0, align 8, !tbaa !3
  %11 = icmp ne ptr %10, null
  %12 = and i1 %9, %11
  %13 = getelementptr inbounds nuw i8, ptr %0, i64 16
  %14 = load ptr, ptr %13, align 8, !tbaa !110
  %15 = icmp ne ptr %14, null
  %16 = and i1 %12, %15
  %17 = getelementptr inbounds nuw i8, ptr %0, i64 8
  %18 = load ptr, ptr %17, align 8, !tbaa !113
  %19 = icmp ne ptr %18, null
  %20 = and i1 %16, %19
  %21 = getelementptr inbounds nuw i8, ptr %0, i64 76
  %22 = load i32, ptr %21, align 4, !tbaa !80
  %23 = icmp ne i32 %22, 0
  %24 = and i1 %20, %23
  %25 = getelementptr inbounds nuw i8, ptr %0, i64 28
  %26 = load i32, ptr %25, align 4, !tbaa !86
  %27 = icmp ne i32 %26, 0
  %28 = and i1 %24, %27
  %29 = getelementptr inbounds nuw i8, ptr %0, i64 24
  %30 = load i32, ptr %29, align 8, !tbaa !89
  %31 = icmp ne i32 %30, 0
  %32 = and i1 %28, %31
  %33 = zext i1 %32 to i32
  %34 = getelementptr inbounds nuw i8, ptr %0, i64 32
  %35 = load i32, ptr %34, align 8, !tbaa !82
  %.not = icmp eq i32 %35, 0
  br i1 %.not, label %._crit_edge, label %.lr.ph

.lr.ph:                                           ; preds = %3
  %36 = getelementptr inbounds nuw i8, ptr %0, i64 88
  %37 = load ptr, ptr %36, align 8, !tbaa !83
  %wide.trip.count = zext i32 %35 to i64
  br label %38

38:                                               ; preds = %.lr.ph, %38
  %indvars.iv = phi i64 [ 0, %.lr.ph ], [ %indvars.iv.next, %38 ]
  %.02729 = phi i32 [ %33, %.lr.ph ], [ %43, %38 ]
  %39 = getelementptr inbounds nuw %struct.opj_jp2_comps, ptr %37, i64 %indvars.iv, i32 2
  %40 = load i32, ptr %39, align 4, !tbaa !95
  %41 = and i32 %40, 126
  %42 = icmp samesign ult i32 %41, 38
  %43 = select i1 %42, i32 %.02729, i32 0
  %indvars.iv.next = add nuw nsw i64 %indvars.iv, 1
  %exitcond.not = icmp eq i64 %indvars.iv.next, %wide.trip.count
  br i1 %exitcond.not, label %._crit_edge, label %38, !llvm.loop !151

._crit_edge:                                      ; preds = %38, %3
  %.027.lcssa = phi i32 [ %33, %3 ], [ %43, %38 ]
  %44 = getelementptr inbounds nuw i8, ptr %0, i64 52
  %45 = load i32, ptr %44, align 4, !tbaa !99
  %46 = add i32 %45, -1
  %narrow = icmp ult i32 %46, 2
  %47 = tail call i32 @opj_stream_has_seek(ptr noundef %1) #6
  %48 = and i32 %47, 1
  %49 = select i1 %narrow, i32 %48, i32 0
  %50 = and i32 %49, %.027.lcssa
  ret i32 %50
}